; Function Attrs: mustprogress nofree norecurse nosync nounwind willreturn memory(read, inaccessiblemem: none) uwtable
define noundef i64 @_ZN7rocksdb15BlockBasedTable22GetApproximateDataSizeEv(ptr nocapture noundef nonnull readonly align 8 dereferenceable(24) %this) local_unnamed_addr #15 align 2 {
entry:
  %rep_ = getelementptr inbounds i8, ptr %this, i64 8
  %0 = load ptr, ptr %rep_, align 8
  %table_properties = getelementptr inbounds i8, ptr %0, i64 480
  %1 = load ptr, ptr %table_properties, align 8
  %cmp.i.not = icmp eq ptr %1, null
  %data_size = getelementptr inbounds i8, ptr %1, i64 8
  %metaindex_handle_.i = getelementptr inbounds i8, ptr %0, i64 376
  %retval.0.in = select i1 %cmp.i.not, ptr %metaindex_handle_.i, ptr %data_size
  %retval.0 = load i64, ptr %retval.0.in, align 8
  ret i64 %retval.0
}